target datalayout = "e-m:e-p270:32:32-p271:32:32-p272:64:64-i64:64-i128:128-f80:128-n8:16:32:64-S128"
target triple = "x86_64-pc-linux-gnu"

%"struct.pxrInternal_v0_24__pxrReserved__::TfStreamFloat" = type { float }
%"class.pxrInternal_v0_24__pxrReserved__::GfMatrix3f" = type { %"class.pxrInternal_v0_24__pxrReserved__::GfMatrixData" }
%"class.pxrInternal_v0_24__pxrReserved__::GfMatrixData" = type { [9 x float] }

@.str.2 = private unnamed_addr constant [4 x i8] c"( (\00", align 1
@.str.3 = private unnamed_addr constant [3 x i8] c", \00", align 1
@.str.4 = private unnamed_addr constant [5 x i8] c"), (\00", align 1
@.str.5 = private unnamed_addr constant [4 x i8] c") )\00", align 1

; Function Attrs: mustprogress nounwind uwtable
define linkonce_odr void @_ZN32pxrInternal_v0_24__pxrReserved__13TfStreamFloatC2Ef(ptr noundef nonnull align 4 dereferenceable(4) %0, float noundef %1) unnamed_addr #2 comdat align 2 {
  %3 = alloca ptr, align 8
  %4 = alloca float, align 4
  store ptr %0, ptr %3, align 8
  store float %1, ptr %4, align 4
  %5 = load ptr, ptr %3, align 8
  %6 = getelementptr inbounds nuw %"struct.pxrInternal_v0_24__pxrReserved__::TfStreamFloat", ptr %5, i32 0, i32 0
  %7 = load float, ptr %4, align 4
  store float %7, ptr %6, align 4
  ret void
}

; Function Attrs: mustprogress nounwind uwtable
define linkonce_odr noundef ptr @_ZNK32pxrInternal_v0_24__pxrReserved__12GfMatrixDataIfLi3ELi3EEixEi(ptr noundef nonnull align 4 dereferenceable(36) %0, i32 noundef %1) #2 comdat align 2 {
  %3 = alloca ptr, align 8
  %4 = alloca i32, align 4
  store ptr %0, ptr %3, align 8
  store i32 %1, ptr %4, align 4
  %5 = load ptr, ptr %3, align 8
  %6 = getelementptr inbounds nuw %"class.pxrInternal_v0_24__pxrReserved__::GfMatrixData", ptr %5, i32 0, i32 0
  %7 = getelementptr inbounds [9 x float], ptr %6, i64 0, i64 0
  %8 = load i32, ptr %4, align 4
  %9 = mul nsw i32 %8, 3
  %10 = sext i32 %9 to i64
  %11 = getelementptr inbounds float, ptr %7, i64 %10
  ret ptr %11
}

; Function Attrs: mustprogress uwtable
define linkonce_odr float @_ZN32pxrInternal_v0_24__pxrReserved__17Gf_OstreamHelperPEf(float noundef %0) #0 comdat {
  %2 = alloca %"struct.pxrInternal_v0_24__pxrReserved__::TfStreamFloat", align 4
  %3 = alloca float, align 4
  store float %0, ptr %3, align 4
  %4 = load float, ptr %3, align 4
  call void @_ZN32pxrInternal_v0_24__pxrReserved__13TfStreamFloatC2Ef(ptr noundef nonnull align 4 dereferenceable(4) %2, float noundef %4)
  %5 = getelementptr inbounds nuw %"struct.pxrInternal_v0_24__pxrReserved__::TfStreamFloat", ptr %2, i32 0, i32 0
  %6 = load float, ptr %5, align 4
  ret float %6
}

; Function Attrs: mustprogress uwtable
define linkonce_odr noundef ptr @_ZNK32pxrInternal_v0_24__pxrReserved__10GfMatrix3fixEi(ptr noundef nonnull align 4 dereferenceable(36) %0, i32 noundef %1) #0 comdat align 2 {
  %3 = alloca ptr, align 8
  %4 = alloca i32, align 4
  store ptr %0, ptr %3, align 8
  store i32 %1, ptr %4, align 4
  %5 = load ptr, ptr %3, align 8
  %6 = getelementptr inbounds nuw %"class.pxrInternal_v0_24__pxrReserved__::GfMatrix3f", ptr %5, i32 0, i32 0
  %7 = load i32, ptr %4, align 4
  %8 = call noundef ptr @_ZNK32pxrInternal_v0_24__pxrReserved__12GfMatrixDataIfLi3ELi3EEixEi(ptr noundef nonnull align 4 dereferenceable(36) %6, i32 noundef %7)
  ret ptr %8
}

; Function Attrs: mustprogress uwtable
define noundef nonnull align 8 dereferenceable(8) ptr @_ZN32pxrInternal_v0_24__pxrReserved__lsERSoRKNS_10GfMatrix3fE(ptr noundef nonnull align 8 dereferenceable(8) %0, ptr noundef nonnull align 4 dereferenceable(36) %1) #0 {
  %3 = alloca ptr, align 8
  %4 = alloca ptr, align 8
  %5 = alloca %"struct.pxrInternal_v0_24__pxrReserved__::TfStreamFloat", align 4
  %6 = alloca %"struct.pxrInternal_v0_24__pxrReserved__::TfStreamFloat", align 4
  %7 = alloca %"struct.pxrInternal_v0_24__pxrReserved__::TfStreamFloat", align 4
  %8 = alloca %"struct.pxrInternal_v0_24__pxrReserved__::TfStreamFloat", align 4
  %9 = alloca %"struct.pxrInternal_v0_24__pxrReserved__::TfStreamFloat", align 4
  %10 = alloca %"struct.pxrInternal_v0_24__pxrReserved__::TfStreamFloat", align 4
  %11 = alloca %"struct.pxrInternal_v0_24__pxrReserved__::TfStreamFloat", align 4
  %12 = alloca %"struct.pxrInternal_v0_24__pxrReserved__::TfStreamFloat", align 4
  %13 = alloca %"struct.pxrInternal_v0_24__pxrReserved__::TfStreamFloat", align 4
  store ptr %0, ptr %3, align 8
  store ptr %1, ptr %4, align 8
  %14 = load ptr, ptr %3, align 8
  %15 = call noundef nonnull align 8 dereferenceable(8) ptr @_ZStlsISt11char_traitsIcEERSt13basic_ostreamIcT_ES5_PKc(ptr noundef nonnull align 8 dereferenceable(8) %14, ptr noundef @.str.2)
  %16 = load ptr, ptr %4, align 8
  %17 = call noundef ptr @_ZNK32pxrInternal_v0_24__pxrReserved__10GfMatrix3fixEi(ptr noundef nonnull align 4 dereferenceable(36) %16, i32 noundef 0)
  %18 = getelementptr inbounds float, ptr %17, i64 0
  %19 = load float, ptr %18, align 4
  %20 = call float @_ZN32pxrInternal_v0_24__pxrReserved__17Gf_OstreamHelperPEf(float noundef %19)
  %21 = getelementptr inbounds nuw %"struct.pxrInternal_v0_24__pxrReserved__::TfStreamFloat", ptr %5, i32 0, i32 0
  store float %20, ptr %21, align 4
  %22 = getelementptr inbounds nuw %"struct.pxrInternal_v0_24__pxrReserved__::TfStreamFloat", ptr %5, i32 0, i32 0
  %23 = load float, ptr %22, align 4
  %24 = call noundef nonnull align 8 dereferenceable(8) ptr @_ZN32pxrInternal_v0_24__pxrReserved__lsERSoNS_13TfStreamFloatE(ptr noundef nonnull align 8 dereferenceable(8) %15, float %23)
  %25 = call noundef nonnull align 8 dereferenceable(8) ptr @_ZStlsISt11char_traitsIcEERSt13basic_ostreamIcT_ES5_PKc(ptr noundef nonnull align 8 dereferenceable(8) %24, ptr noundef @.str.3)
  %26 = load ptr, ptr %4, align 8
  %27 = call noundef ptr @_ZNK32pxrInternal_v0_24__pxrReserved__10GfMatrix3fixEi(ptr noundef nonnull align 4 dereferenceable(36) %26, i32 noundef 0)
  %28 = getelementptr inbounds float, ptr %27, i64 1
  %29 = load float, ptr %28, align 4
  %30 = call float @_ZN32pxrInternal_v0_24__pxrReserved__17Gf_OstreamHelperPEf(float noundef %29)
  %31 = getelementptr inbounds nuw %"struct.pxrInternal_v0_24__pxrReserved__::TfStreamFloat", ptr %6, i32 0, i32 0
  store float %30, ptr %31, align 4
  %32 = getelementptr inbounds nuw %"struct.pxrInternal_v0_24__pxrReserved__::TfStreamFloat", ptr %6, i32 0, i32 0
  %33 = load float, ptr %32, align 4
  %34 = call noundef nonnull align 8 dereferenceable(8) ptr @_ZN32pxrInternal_v0_24__pxrReserved__lsERSoNS_13TfStreamFloatE(ptr noundef nonnull align 8 dereferenceable(8) %25, float %33)
  %35 = call noundef nonnull align 8 dereferenceable(8) ptr @_ZStlsISt11char_traitsIcEERSt13basic_ostreamIcT_ES5_PKc(ptr noundef nonnull align 8 dereferenceable(8) %34, ptr noundef @.str.3)
  %36 = load ptr, ptr %4, align 8
  %37 = call noundef ptr @_ZNK32pxrInternal_v0_24__pxrReserved__10GfMatrix3fixEi(ptr noundef nonnull align 4 dereferenceable(36) %36, i32 noundef 0)
  %38 = getelementptr inbounds float, ptr %37, i64 2
  %39 = load float, ptr %38, align 4
  %40 = call float @_ZN32pxrInternal_v0_24__pxrReserved__17Gf_OstreamHelperPEf(float noundef %39)
  %41 = getelementptr inbounds nuw %"struct.pxrInternal_v0_24__pxrReserved__::TfStreamFloat", ptr %7, i32 0, i32 0
  store float %40, ptr %41, align 4
  %42 = getelementptr inbounds nuw %"struct.pxrInternal_v0_24__pxrReserved__::TfStreamFloat", ptr %7, i32 0, i32 0
  %43 = load float, ptr %42, align 4
  %44 = call noundef nonnull align 8 dereferenceable(8) ptr @_ZN32pxrInternal_v0_24__pxrReserved__lsERSoNS_13TfStreamFloatE(ptr noundef nonnull align 8 dereferenceable(8) %35, float %43)
  %45 = call noundef nonnull align 8 dereferenceable(8) ptr @_ZStlsISt11char_traitsIcEERSt13basic_ostreamIcT_ES5_PKc(ptr noundef nonnull align 8 dereferenceable(8) %44, ptr noundef @.str.4)
  %46 = load ptr, ptr %4, align 8
  %47 = call noundef ptr @_ZNK32pxrInternal_v0_24__pxrReserved__10GfMatrix3fixEi(ptr noundef nonnull align 4 dereferenceable(36) %46, i32 noundef 1)
  %48 = getelementptr inbounds float, ptr %47, i64 0
  %49 = load float, ptr %48, align 4
  %50 = call float @_ZN32pxrInternal_v0_24__pxrReserved__17Gf_OstreamHelperPEf(float noundef %49)
  %51 = getelementptr inbounds nuw %"struct.pxrInternal_v0_24__pxrReserved__::TfStreamFloat", ptr %8, i32 0, i32 0
  store float %50, ptr %51, align 4
  %52 = getelementptr inbounds nuw %"struct.pxrInternal_v0_24__pxrReserved__::TfStreamFloat", ptr %8, i32 0, i32 0
  %53 = load float, ptr %52, align 4
  %54 = call noundef nonnull align 8 dereferenceable(8) ptr @_ZN32pxrInternal_v0_24__pxrReserved__lsERSoNS_13TfStreamFloatE(ptr noundef nonnull align 8 dereferenceable(8) %45, float %53)
  %55 = call noundef nonnull align 8 dereferenceable(8) ptr @_ZStlsISt11char_traitsIcEERSt13basic_ostreamIcT_ES5_PKc(ptr noundef nonnull align 8 dereferenceable(8) %54, ptr noundef @.str.3)
  %56 = load ptr, ptr %4, align 8
  %57 = call noundef ptr @_ZNK32pxrInternal_v0_24__pxrReserved__10GfMatrix3fixEi(ptr noundef nonnull align 4 dereferenceable(36) %56, i32 noundef 1)
  %58 = getelementptr inbounds float, ptr %57, i64 1
  %59 = load float, ptr %58, align 4
  %60 = call float @_ZN32pxrInternal_v0_24__pxrReserved__17Gf_OstreamHelperPEf(float noundef %59)
  %61 = getelementptr inbounds nuw %"struct.pxrInternal_v0_24__pxrReserved__::TfStreamFloat", ptr %9, i32 0, i32 0
  store float %60, ptr %61, align 4
  %62 = getelementptr inbounds nuw %"struct.pxrInternal_v0_24__pxrReserved__::TfStreamFloat", ptr %9, i32 0, i32 0
  %63 = load float, ptr %62, align 4
  %64 = call noundef nonnull align 8 dereferenceable(8) ptr @_ZN32pxrInternal_v0_24__pxrReserved__lsERSoNS_13TfStreamFloatE(ptr noundef nonnull align 8 dereferenceable(8) %55, float %63)
  %65 = call noundef nonnull align 8 dereferenceable(8) ptr @_ZStlsISt11char_traitsIcEERSt13basic_ostreamIcT_ES5_PKc(ptr noundef nonnull align 8 dereferenceable(8) %64, ptr noundef @.str.3)
  %66 = load ptr, ptr %4, align 8
  %67 = call noundef ptr @_ZNK32pxrInternal_v0_24__pxrReserved__10GfMatrix3fixEi(ptr noundef nonnull align 4 dereferenceable(36) %66, i32 noundef 1)
  %68 = getelementptr inbounds float, ptr %67, i64 2
  %69 = load float, ptr %68, align 4
  %70 = call float @_ZN32pxrInternal_v0_24__pxrReserved__17Gf_OstreamHelperPEf(float noundef %69)
  %71 = getelementptr inbounds nuw %"struct.pxrInternal_v0_24__pxrReserved__::TfStreamFloat", ptr %10, i32 0, i32 0
  store float %70, ptr %71, align 4
  %72 = getelementptr inbounds nuw %"struct.pxrInternal_v0_24__pxrReserved__::TfStreamFloat", ptr %10, i32 0, i32 0
  %73 = load float, ptr %72, align 4
  %74 = call noundef nonnull align 8 dereferenceable(8) ptr @_ZN32pxrInternal_v0_24__pxrReserved__lsERSoNS_13TfStreamFloatE(ptr noundef nonnull align 8 dereferenceable(8) %65, float %73)
  %75 = call noundef nonnull align 8 dereferenceable(8) ptr @_ZStlsISt11char_traitsIcEERSt13basic_ostreamIcT_ES5_PKc(ptr noundef nonnull align 8 dereferenceable(8) %74, ptr noundef @.str.4)
  %76 = load ptr, ptr %4, align 8
  %77 = call noundef ptr @_ZNK32pxrInternal_v0_24__pxrReserved__10GfMatrix3fixEi(ptr noundef nonnull align 4 dereferenceable(36) %76, i32 noundef 2)
  %78 = getelementptr inbounds float, ptr %77, i64 0
  %79 = load float, ptr %78, align 4
  %80 = call float @_ZN32pxrInternal_v0_24__pxrReserved__17Gf_OstreamHelperPEf(float noundef %79)
  %81 = getelementptr inbounds nuw %"struct.pxrInternal_v0_24__pxrReserved__::TfStreamFloat", ptr %11, i32 0, i32 0
  store float %80, ptr %81, align 4
  %82 = getelementptr inbounds nuw %"struct.pxrInternal_v0_24__pxrReserved__::TfStreamFloat", ptr %11, i32 0, i32 0
  %83 = load float, ptr %82, align 4
  %84 = call noundef nonnull align 8 dereferenceable(8) ptr @_ZN32pxrInternal_v0_24__pxrReserved__lsERSoNS_13TfStreamFloatE(ptr noundef nonnull align 8 dereferenceable(8) %75, float %83)
  %85 = call noundef nonnull align 8 dereferenceable(8) ptr @_ZStlsISt11char_traitsIcEERSt13basic_ostreamIcT_ES5_PKc(ptr noundef nonnull align 8 dereferenceable(8) %84, ptr noundef @.str.3)
  %86 = load ptr, ptr %4, align 8
  %87 = call noundef ptr @_ZNK32pxrInternal_v0_24__pxrReserved__10GfMatrix3fixEi(ptr noundef nonnull align 4 dereferenceable(36) %86, i32 noundef 2)
  %88 = getelementptr inbounds float, ptr %87, i64 1
  %89 = load float, ptr %88, align 4
  %90 = call float @_ZN32pxrInternal_v0_24__pxrReserved__17Gf_OstreamHelperPEf(float noundef %89)
  %91 = getelementptr inbounds nuw %"struct.pxrInternal_v0_24__pxrReserved__::TfStreamFloat", ptr %12, i32 0, i32 0
  store float %90, ptr %91, align 4
  %92 = getelementptr inbounds nuw %"struct.pxrInternal_v0_24__pxrReserved__::TfStreamFloat", ptr %12, i32 0, i32 0
  %93 = load float, ptr %92, align 4
  %94 = call noundef nonnull align 8 dereferenceable(8) ptr @_ZN32pxrInternal_v0_24__pxrReserved__lsERSoNS_13TfStreamFloatE(ptr noundef nonnull align 8 dereferenceable(8) %85, float %93)
  %95 = call noundef nonnull align 8 dereferenceable(8) ptr @_ZStlsISt11char_traitsIcEERSt13basic_ostreamIcT_ES5_PKc(ptr noundef nonnull align 8 dereferenceable(8) %94, ptr noundef @.str.3)
  %96 = load ptr, ptr %4, align 8
  %97 = call noundef ptr @_ZNK32pxrInternal_v0_24__pxrReserved__10GfMatrix3fixEi(ptr noundef nonnull align 4 dereferenceable(36) %96, i32 noundef 2)
  %98 = getelementptr inbounds float, ptr %97, i64 2
  %99 = load float, ptr %98, align 4
  %100 = call float @_ZN32pxrInternal_v0_24__pxrReserved__17Gf_OstreamHelperPEf(float noundef %99)
  %101 = getelementptr inbounds nuw %"struct.pxrInternal_v0_24__pxrReserved__::TfStreamFloat", ptr %13, i32 0, i32 0
  store float %100, ptr %101, align 4
  %102 = getelementptr inbounds nuw %"struct.pxrInternal_v0_24__pxrReserved__::TfStreamFloat", ptr %13, i32 0, i32 0
  %103 = load float, ptr %102, align 4
  %104 = call noundef nonnull align 8 dereferenceable(8) ptr @_ZN32pxrInternal_v0_24__pxrReserved__lsERSoNS_13TfStreamFloatE(ptr noundef nonnull align 8 dereferenceable(8) %95, float %103)
  %105 = call noundef nonnull align 8 dereferenceable(8) ptr @_ZStlsISt11char_traitsIcEERSt13basic_ostreamIcT_ES5_PKc(ptr noundef nonnull align 8 dereferenceable(8) %104, ptr noundef @.str.5)
  ret ptr %105
}