; Function Attrs: mustprogress uwtable
define noundef nonnull align 8 dereferenceable(8) ptr @_ZN32pxrInternal_v0_24__pxrReserved__lsERSoRKNS_10GfMatrix3fE(ptr noundef nonnull align 8 dereferenceable(8) %0, ptr nocapture noundef nonnull readonly align 4 dereferenceable(36) %1) local_unnamed_addr #0 {
  %3 = tail call noundef nonnull align 8 dereferenceable(8) ptr @_ZStlsISt11char_traitsIcEERSt13basic_ostreamIcT_ES5_PKc(ptr noundef nonnull align 8 dereferenceable(8) %0, ptr noundef nonnull @.str.2)
  %4 = load float, ptr %1, align 4
  %5 = tail call noundef nonnull align 8 dereferenceable(8) ptr @_ZN32pxrInternal_v0_24__pxrReserved__lsERSoNS_13TfStreamFloatE(ptr noundef nonnull align 8 dereferenceable(8) %3, float %4)
  %6 = tail call noundef nonnull align 8 dereferenceable(8) ptr @_ZStlsISt11char_traitsIcEERSt13basic_ostreamIcT_ES5_PKc(ptr noundef nonnull align 8 dereferenceable(8) %5, ptr noundef nonnull @.str.3)
  %7 = getelementptr inbounds i8, ptr %1, i64 4
  %8 = load float, ptr %7, align 4
  %9 = tail call noundef nonnull align 8 dereferenceable(8) ptr @_ZN32pxrInternal_v0_24__pxrReserved__lsERSoNS_13TfStreamFloatE(ptr noundef nonnull align 8 dereferenceable(8) %6, float %8)
  %10 = tail call noundef nonnull align 8 dereferenceable(8) ptr @_ZStlsISt11char_traitsIcEERSt13basic_ostreamIcT_ES5_PKc(ptr noundef nonnull align 8 dereferenceable(8) %9, ptr noundef nonnull @.str.3)
  %11 = getelementptr inbounds i8, ptr %1, i64 8
  %12 = load float, ptr %11, align 4
  %13 = tail call noundef nonnull align 8 dereferenceable(8) ptr @_ZN32pxrInternal_v0_24__pxrReserved__lsERSoNS_13TfStreamFloatE(ptr noundef nonnull align 8 dereferenceable(8) %10, float %12)
  %14 = tail call noundef nonnull align 8 dereferenceable(8) ptr @_ZStlsISt11char_traitsIcEERSt13basic_ostreamIcT_ES5_PKc(ptr noundef nonnull align 8 dereferenceable(8) %13, ptr noundef nonnull @.str.4)
  %15 = getelementptr inbounds i8, ptr %1, i64 12
  %16 = load float, ptr %15, align 4
  %17 = tail call noundef nonnull align 8 dereferenceable(8) ptr @_ZN32pxrInternal_v0_24__pxrReserved__lsERSoNS_13TfStreamFloatE(ptr noundef nonnull align 8 dereferenceable(8) %14, float %16)
  %18 = tail call noundef nonnull align 8 dereferenceable(8) ptr @_ZStlsISt11char_traitsIcEERSt13basic_ostreamIcT_ES5_PKc(ptr noundef nonnull align 8 dereferenceable(8) %17, ptr noundef nonnull @.str.3)
  %19 = getelementptr inbounds i8, ptr %1, i64 16
  %20 = load float, ptr %19, align 4
  %21 = tail call noundef nonnull align 8 dereferenceable(8) ptr @_ZN32pxrInternal_v0_24__pxrReserved__lsERSoNS_13TfStreamFloatE(ptr noundef nonnull align 8 dereferenceable(8) %18, float %20)
  %22 = tail call noundef nonnull align 8 dereferenceable(8) ptr @_ZStlsISt11char_traitsIcEERSt13basic_ostreamIcT_ES5_PKc(ptr noundef nonnull align 8 dereferenceable(8) %21, ptr noundef nonnull @.str.3)
  %23 = getelementptr inbounds i8, ptr %1, i64 20
  %24 = load float, ptr %23, align 4
  %25 = tail call noundef nonnull align 8 dereferenceable(8) ptr @_ZN32pxrInternal_v0_24__pxrReserved__lsERSoNS_13TfStreamFloatE(ptr noundef nonnull align 8 dereferenceable(8) %22, float %24)
  %26 = tail call noundef nonnull align 8 dereferenceable(8) ptr @_ZStlsISt11char_traitsIcEERSt13basic_ostreamIcT_ES5_PKc(ptr noundef nonnull align 8 dereferenceable(8) %25, ptr noundef nonnull @.str.4)
  %27 = getelementptr inbounds i8, ptr %1, i64 24
  %28 = load float, ptr %27, align 4
  %29 = tail call noundef nonnull align 8 dereferenceable(8) ptr @_ZN32pxrInternal_v0_24__pxrReserved__lsERSoNS_13TfStreamFloatE(ptr noundef nonnull align 8 dereferenceable(8) %26, float %28)
  %30 = tail call noundef nonnull align 8 dereferenceable(8) ptr @_ZStlsISt11char_traitsIcEERSt13basic_ostreamIcT_ES5_PKc(ptr noundef nonnull align 8 dereferenceable(8) %29, ptr noundef nonnull @.str.3)
  %31 = getelementptr inbounds i8, ptr %1, i64 28
  %32 = load float, ptr %31, align 4
  %33 = tail call noundef nonnull align 8 dereferenceable(8) ptr @_ZN32pxrInternal_v0_24__pxrReserved__lsERSoNS_13TfStreamFloatE(ptr noundef nonnull align 8 dereferenceable(8) %30, float %32)
  %34 = tail call noundef nonnull align 8 dereferenceable(8) ptr @_ZStlsISt11char_traitsIcEERSt13basic_ostreamIcT_ES5_PKc(ptr noundef nonnull align 8 dereferenceable(8) %33, ptr noundef nonnull @.str.3)
  %35 = getelementptr inbounds i8, ptr %1, i64 32
  %36 = load float, ptr %35, align 4
  %37 = tail call noundef nonnull align 8 dereferenceable(8) ptr @_ZN32pxrInternal_v0_24__pxrReserved__lsERSoNS_13TfStreamFloatE(ptr noundef nonnull align 8 dereferenceable(8) %34, float %36)
  %38 = tail call noundef nonnull align 8 dereferenceable(8) ptr @_ZStlsISt11char_traitsIcEERSt13basic_ostreamIcT_ES5_PKc(ptr noundef nonnull align 8 dereferenceable(8) %37, ptr noundef nonnull @.str.5)
  ret ptr %38
}